; Function Attrs: mustprogress uwtable
define internal noundef zeroext i1 @_ZNK7testing8internal30ValuesInIteratorRangeGeneratorIN11opencv_test12_GLOBAL__N_112_GLOBAL__N_18SrcTypesEE8Iterator6EqualsERKNS0_22ParamIteratorInterfaceIS5_EE(ptr noundef nonnull align 8 dereferenceable(32) %0, ptr noundef nonnull align 8 dereferenceable(8) %1) unnamed_addr #3 align 2 personality ptr @__gxx_personality_v0 {
  %3 = alloca %"class.testing::internal::GTestLog", align 4
  %4 = alloca %"class.testing::internal::GTestLog", align 4
  %5 = load ptr, ptr %0, align 8
  %6 = getelementptr inbounds i8, ptr %5, i64 16
  %7 = load ptr, ptr %6, align 8
  %8 = tail call noundef ptr %7(ptr noundef nonnull align 8 dereferenceable(32) %0)
  %9 = load ptr, ptr %1, align 8
  %10 = getelementptr inbounds i8, ptr %9, i64 16
  %11 = load ptr, ptr %10, align 8
  %12 = tail call noundef ptr %11(ptr noundef nonnull align 8 dereferenceable(8) %1)
  %13 = icmp eq ptr %8, %12
  %14 = tail call noundef zeroext i1 @_ZN7testing8internal6IsTrueEb(i1 noundef zeroext %13)
  br i1 %14, label %26, label %15

15:                                               ; preds = %2
  call void @_ZN7testing8internal8GTestLogC1ENS0_16GTestLogSeverityEPKci(ptr noundef nonnull align 4 dereferenceable(4) %4, i32 noundef 3, ptr noundef nonnull @.str.26, i32 noundef 11855)
  %16 = invoke noundef nonnull align 8 dereferenceable(8) ptr @_ZStlsISt11char_traitsIcEERSt13basic_ostreamIcT_ES5_PKc(ptr noundef nonnull align 8 dereferenceable(8) @_ZSt4cerr, ptr noundef nonnull @.str.37)
          to label %17 unwind label %24

17:                                               ; preds = %15
  %18 = invoke noundef nonnull align 8 dereferenceable(8) ptr @_ZStlsISt11char_traitsIcEERSt13basic_ostreamIcT_ES5_PKc(ptr noundef nonnull align 8 dereferenceable(8) %16, ptr noundef nonnull @.str.38)
          to label %19 unwind label %24

19:                                               ; preds = %17
  %20 = invoke noundef nonnull align 8 dereferenceable(8) ptr @_ZStlsISt11char_traitsIcEERSt13basic_ostreamIcT_ES5_PKc(ptr noundef nonnull align 8 dereferenceable(8) %18, ptr noundef nonnull @.str.39)
          to label %21 unwind label %24

21:                                               ; preds = %19
  %22 = invoke noundef nonnull align 8 dereferenceable(8) ptr @_ZNSolsEPFRSoS_E(ptr noundef nonnull align 8 dereferenceable(8) %20, ptr noundef nonnull @_ZSt4endlIcSt11char_traitsIcEERSt13basic_ostreamIT_T0_ES6_)
          to label %23 unwind label %24

23:                                               ; preds = %21
  call void @_ZN7testing8internal8GTestLogD1Ev(ptr noundef nonnull align 4 dereferenceable(4) %4) #26
  br label %26

common.resume:                                    ; preds = %42, %24
  %.sink = phi ptr [ %3, %42 ], [ %4, %24 ]
  %common.resume.op = phi { ptr, i32 } [ %43, %42 ], [ %25, %24 ]
  call void @_ZN7testing8internal8GTestLogD1Ev(ptr noundef nonnull align 4 dereferenceable(4) %.sink) #26
  resume { ptr, i32 } %common.resume.op

24:                                               ; preds = %21, %19, %17, %15
  %25 = landingpad { ptr, i32 }
          cleanup
  br label %common.resume

26:                                               ; preds = %2, %23
  call void @llvm.lifetime.start.p0(i64 4, ptr nonnull %3)
  %27 = load ptr, ptr %1, align 8
  %28 = getelementptr inbounds i8, ptr %27, i64 -8
  %29 = load ptr, ptr %28, align 8
  %30 = getelementptr inbounds i8, ptr %29, i64 8
  %31 = load ptr, ptr %30, align 8
  %32 = icmp eq ptr %31, @_ZTSN7testing8internal30ValuesInIteratorRangeGeneratorIN11opencv_test12_GLOBAL__N_112_GLOBAL__N_18SrcTypesEE8IteratorE
  br i1 %32, label %_ZNKSt9type_infoeqERKS_.exit.i, label %33

33:                                               ; preds = %26
  %34 = load i8, ptr %31, align 1
  %.not.i.i = icmp eq i8 %34, 42
  br i1 %.not.i.i, label %_ZNKSt9type_infoeqERKS_.exit.i, label %35

35:                                               ; preds = %33
  %36 = call i32 @strcmp(ptr noundef nonnull dereferenceable(1) %31, ptr noundef nonnull dereferenceable(115) @_ZTSN7testing8internal30ValuesInIteratorRangeGeneratorIN11opencv_test12_GLOBAL__N_112_GLOBAL__N_18SrcTypesEE8IteratorE) #26
  %37 = icmp eq i32 %36, 0
  br label %_ZNKSt9type_infoeqERKS_.exit.i

_ZNKSt9type_infoeqERKS_.exit.i:                   ; preds = %35, %33, %26
  %.0.i.i = phi i1 [ true, %26 ], [ false, %33 ], [ %37, %35 ]
  %38 = call noundef zeroext i1 @_ZN7testing8internal6IsTrueEb(i1 noundef zeroext %.0.i.i)
  br i1 %38, label %_ZN7testing8internal27CheckedDowncastToActualTypeIKNS0_30ValuesInIteratorRangeGeneratorIN11opencv_test12_GLOBAL__N_112_GLOBAL__N_18SrcTypesEE8IteratorEKNS0_22ParamIteratorInterfaceIS6_EEEEPT_PT0_.exit, label %39

39:                                               ; preds = %_ZNKSt9type_infoeqERKS_.exit.i
  call void @_ZN7testing8internal8GTestLogC1ENS0_16GTestLogSeverityEPKci(ptr noundef nonnull align 4 dereferenceable(4) %3, i32 noundef 3, ptr noundef nonnull @.str.26, i32 noundef 2881)
  %40 = invoke noundef nonnull align 8 dereferenceable(8) ptr @_ZStlsISt11char_traitsIcEERSt13basic_ostreamIcT_ES5_PKc(ptr noundef nonnull align 8 dereferenceable(8) @_ZSt4cerr, ptr noundef nonnull @.str.40)
          to label %41 unwind label %42

41:                                               ; preds = %39
  call void @_ZN7testing8internal8GTestLogD1Ev(ptr noundef nonnull align 4 dereferenceable(4) %3) #26
  br label %_ZN7testing8internal27CheckedDowncastToActualTypeIKNS0_30ValuesInIteratorRangeGeneratorIN11opencv_test12_GLOBAL__N_112_GLOBAL__N_18SrcTypesEE8IteratorEKNS0_22ParamIteratorInterfaceIS6_EEEEPT_PT0_.exit

42:                                               ; preds = %39
  %43 = landingpad { ptr, i32 }
          cleanup
  br label %common.resume

_ZN7testing8internal27CheckedDowncastToActualTypeIKNS0_30ValuesInIteratorRangeGeneratorIN11opencv_test12_GLOBAL__N_112_GLOBAL__N_18SrcTypesEE8IteratorEKNS0_22ParamIteratorInterfaceIS6_EEEEPT_PT0_.exit: ; preds = %_ZNKSt9type_infoeqERKS_.exit.i, %41
  %44 = getelementptr inbounds i8, ptr %0, i64 16
  %45 = call noundef ptr @__dynamic_cast(ptr nonnull readonly %1, ptr nonnull @_ZTIN7testing8internal22ParamIteratorInterfaceIN11opencv_test12_GLOBAL__N_112_GLOBAL__N_18SrcTypesEEE, ptr nonnull @_ZTIN7testing8internal30ValuesInIteratorRangeGeneratorIN11opencv_test12_GLOBAL__N_112_GLOBAL__N_18SrcTypesEE8IteratorE, i64 0) #26
  call void @llvm.lifetime.end.p0(i64 4, ptr nonnull %3)
  %46 = getelementptr inbounds i8, ptr %45, i64 16
  %.val = load ptr, ptr %44, align 8
  %.val4 = load ptr, ptr %46, align 8
  %47 = icmp eq ptr %.val, %.val4
  ret i1 %47
}